; Function Attrs: mustprogress uwtable
define internal noundef ptr @"_ZZN4pkpy6FileIO9_registerEPNS_2VMEPNS_8PyObjectES4_EN3$_08__invokeES2_NS_8ArgsViewE"(ptr noundef %0, ptr readonly captures(none) %1, ptr readnone captures(none) %2) #3 align 2 {
  %4 = alloca ptr, align 8
  call void @llvm.lifetime.start.p0(i64 8, ptr nonnull %4)
  store ptr %0, ptr %4, align 8
  %5 = load ptr, ptr %1, align 8
  %6 = getelementptr inbounds nuw i8, ptr %5, i64 24
  %.sroa.01.0.copyload.i = load i16, ptr %6, align 8
  %7 = getelementptr inbounds nuw i8, ptr %1, i64 8
  %8 = load ptr, ptr %7, align 8
  %9 = ptrtoint ptr %8 to i64
  %10 = and i64 %9, 3
  %11 = icmp eq i64 %10, 2
  br i1 %11, label %15, label %_ZN4pkpy7is_typeEPNS_8PyObjectENS_4TypeE.exit.i.i.i.i

_ZN4pkpy7is_typeEPNS_8PyObjectENS_4TypeE.exit.i.i.i.i: ; preds = %3
  %12 = getelementptr inbounds nuw i8, ptr %8, i64 10
  %13 = load i16, ptr %12, align 2
  %14 = icmp eq i16 %13, 5
  br i1 %14, label %_ZN4pkpy7py_castIRNS_3StrEEET_PNS_2VMEPNS_8PyObjectE.exit.i, label %15

15:                                               ; preds = %_ZN4pkpy7is_typeEPNS_8PyObjectENS_4TypeE.exit.i.i.i.i, %3
  %16 = getelementptr inbounds nuw i8, ptr %8, i64 10
  %17 = select i1 %11, ptr @_ZN4pkpy2VM6tp_intE, ptr %16
  %.sroa.0.0.copyload.i.i.i.i.i = load i16, ptr %17, align 2
  tail call void @_ZN4pkpy2VM9TypeErrorENS_4TypeES1_(ptr noundef nonnull align 8 dereferenceable(264913) %0, i16 5, i16 %.sroa.0.0.copyload.i.i.i.i.i)
  br label %_ZN4pkpy7py_castIRNS_3StrEEET_PNS_2VMEPNS_8PyObjectE.exit.i

_ZN4pkpy7py_castIRNS_3StrEEET_PNS_2VMEPNS_8PyObjectE.exit.i: ; preds = %15, %_ZN4pkpy7is_typeEPNS_8PyObjectENS_4TypeE.exit.i.i.i.i
  %18 = getelementptr inbounds nuw i8, ptr %1, i64 16
  %19 = load ptr, ptr %18, align 8
  %20 = ptrtoint ptr %19 to i64
  %21 = and i64 %20, 3
  %22 = icmp eq i64 %21, 2
  br i1 %22, label %26, label %_ZN4pkpy7is_typeEPNS_8PyObjectENS_4TypeE.exit.i.i.i2.i

_ZN4pkpy7is_typeEPNS_8PyObjectENS_4TypeE.exit.i.i.i2.i: ; preds = %_ZN4pkpy7py_castIRNS_3StrEEET_PNS_2VMEPNS_8PyObjectE.exit.i
  %23 = getelementptr inbounds nuw i8, ptr %19, i64 10
  %24 = load i16, ptr %23, align 2
  %25 = icmp eq i16 %24, 5
  br i1 %25, label %"_ZZN4pkpy6FileIO9_registerEPNS_2VMEPNS_8PyObjectES4_ENK3$_0clES2_NS_8ArgsViewE.exit", label %26

26:                                               ; preds = %_ZN4pkpy7is_typeEPNS_8PyObjectENS_4TypeE.exit.i.i.i2.i, %_ZN4pkpy7py_castIRNS_3StrEEET_PNS_2VMEPNS_8PyObjectE.exit.i
  %27 = getelementptr inbounds nuw i8, ptr %19, i64 10
  %28 = select i1 %22, ptr @_ZN4pkpy2VM6tp_intE, ptr %27
  %.sroa.0.0.copyload.i.i.i.i3.i = load i16, ptr %28, align 2
  tail call void @_ZN4pkpy2VM9TypeErrorENS_4TypeES1_(ptr noundef nonnull align 8 dereferenceable(264913) %0, i16 5, i16 %.sroa.0.0.copyload.i.i.i.i3.i)
  br label %"_ZZN4pkpy6FileIO9_registerEPNS_2VMEPNS_8PyObjectES4_ENK3$_0clES2_NS_8ArgsViewE.exit"

"_ZZN4pkpy6FileIO9_registerEPNS_2VMEPNS_8PyObjectES4_ENK3$_0clES2_NS_8ArgsViewE.exit": ; preds = %_ZN4pkpy7is_typeEPNS_8PyObjectENS_4TypeE.exit.i.i.i2.i, %26
  %29 = getelementptr inbounds nuw i8, ptr %8, i64 24
  %30 = getelementptr inbounds nuw i8, ptr %0, i64 16
  %31 = getelementptr inbounds nuw i8, ptr %19, i64 24
  %32 = call noundef ptr @_ZN4pkpy11ManagedHeap5gcnewINS_6FileIOEJRPNS_2VMERNS_3StrES7_EEEPNS_8PyObjectENS_4TypeEDpOT0_(ptr noundef nonnull align 8 dereferenceable(84) %30, i16 %.sroa.01.0.copyload.i, ptr noundef nonnull align 8 dereferenceable(8) %4, ptr noundef nonnull align 8 dereferenceable(32) %29, ptr noundef nonnull align 8 dereferenceable(32) %31)
  call void @llvm.lifetime.end.p0(i64 8, ptr nonnull %4)
  ret ptr %32
}